; Function Attrs: nounwind uwtable
define range(i64 -2147483648, 2147483648) i64 @euc_jp_to_mic(ptr noundef readonly captures(none) %0) local_unnamed_addr #1 {
  %2 = getelementptr inbounds nuw i8, ptr %0, i64 32
  %3 = getelementptr inbounds nuw i8, ptr %0, i64 64
  %4 = load i64, ptr %3, align 8
  %5 = inttoptr i64 %4 to ptr
  %6 = getelementptr inbounds nuw i8, ptr %0, i64 80
  %7 = load i64, ptr %6, align 8
  %8 = inttoptr i64 %7 to ptr
  %9 = getelementptr inbounds nuw i8, ptr %0, i64 96
  %10 = load i64, ptr %9, align 8
  %11 = trunc i64 %10 to i32
  %12 = getelementptr inbounds nuw i8, ptr %0, i64 112
  %13 = load i64, ptr %12, align 8
  %.not = icmp eq i64 %13, 0
  %14 = load i64, ptr %2, align 8
  %15 = trunc i64 %14 to i32
  %16 = getelementptr inbounds nuw i8, ptr %0, i64 48
  %17 = load i64, ptr %16, align 8
  %18 = trunc i64 %17 to i32
  tail call void @check_encoding_conversion_args(i32 noundef %15, i32 noundef %18, i32 noundef %11, i32 noundef 1, i32 noundef 7) #4
  %19 = icmp sgt i32 %11, 0
  br i1 %19, label %.lr.ph.i, label %euc_jp2mic.exit

.lr.ph.i:                                         ; preds = %1, %.backedge.i
  %.053.i = phi ptr [ %.0.be.i, %.backedge.i ], [ %5, %1 ]
  %.03952.i = phi ptr [ %.039.be.i, %.backedge.i ], [ %8, %1 ]
  %.04051.i = phi i32 [ %.040.be.i, %.backedge.i ], [ %11, %1 ]
  %20 = load i8, ptr %.053.i, align 1
  %.not.i = icmp sgt i8 %20, -1
  br i1 %.not.i, label %21, label %30

21:                                               ; preds = %.lr.ph.i
  %22 = icmp eq i8 %20, 0
  br i1 %22, label %23, label %25

23:                                               ; preds = %21
  br i1 %.not, label %24, label %euc_jp2mic.exit

24:                                               ; preds = %23
  tail call void @report_invalid_encoding(i32 noundef 1, ptr noundef nonnull %.053.i, i32 noundef %.04051.i) #5
  unreachable

25:                                               ; preds = %21
  %26 = getelementptr inbounds nuw i8, ptr %.03952.i, i64 1
  store i8 %20, ptr %.03952.i, align 1
  %27 = getelementptr inbounds nuw i8, ptr %.053.i, i64 1
  %28 = add nsw i32 %.04051.i, -1
  br label %.backedge.i

.backedge.i:                                      ; preds = %53, %25
  %.040.be.i = phi i32 [ %56, %53 ], [ %28, %25 ]
  %.039.be.i = phi ptr [ %.1.i, %53 ], [ %26, %25 ]
  %.0.be.i = phi ptr [ %55, %53 ], [ %27, %25 ]
  %29 = icmp sgt i32 %.040.be.i, 0
  br i1 %29, label %.lr.ph.i, label %euc_jp2mic.exit, !llvm.loop !6

30:                                               ; preds = %.lr.ph.i
  %31 = tail call i32 @pg_encoding_verifymbchar(i32 noundef 1, ptr noundef nonnull %.053.i, i32 noundef %.04051.i) #4
  %32 = icmp slt i32 %31, 0
  br i1 %32, label %33, label %35

33:                                               ; preds = %30
  br i1 %.not, label %34, label %euc_jp2mic.exit

34:                                               ; preds = %33
  tail call void @report_invalid_encoding(i32 noundef 1, ptr noundef nonnull %.053.i, i32 noundef %.04051.i) #5
  unreachable

35:                                               ; preds = %30
  %36 = getelementptr inbounds nuw i8, ptr %.03952.i, i64 1
  switch i8 %20, label %48 [
    i8 -114, label %37
    i8 -113, label %41
  ]

37:                                               ; preds = %35
  store i8 -119, ptr %.03952.i, align 1
  %38 = getelementptr inbounds nuw i8, ptr %.053.i, i64 1
  %39 = load i8, ptr %38, align 1
  %40 = getelementptr inbounds nuw i8, ptr %.03952.i, i64 2
  store i8 %39, ptr %36, align 1
  br label %53

41:                                               ; preds = %35
  store i8 -108, ptr %.03952.i, align 1
  %42 = getelementptr inbounds nuw i8, ptr %.053.i, i64 1
  %43 = load i8, ptr %42, align 1
  %44 = getelementptr inbounds nuw i8, ptr %.03952.i, i64 2
  store i8 %43, ptr %36, align 1
  %45 = getelementptr inbounds nuw i8, ptr %.053.i, i64 2
  %46 = load i8, ptr %45, align 1
  %47 = getelementptr inbounds nuw i8, ptr %.03952.i, i64 3
  store i8 %46, ptr %44, align 1
  br label %53

48:                                               ; preds = %35
  store i8 -110, ptr %.03952.i, align 1
  %49 = getelementptr inbounds nuw i8, ptr %.03952.i, i64 2
  store i8 %20, ptr %36, align 1
  %50 = getelementptr inbounds nuw i8, ptr %.053.i, i64 1
  %51 = load i8, ptr %50, align 1
  %52 = getelementptr inbounds nuw i8, ptr %.03952.i, i64 3
  store i8 %51, ptr %49, align 1
  br label %53

53:                                               ; preds = %48, %41, %37
  %.1.i = phi ptr [ %40, %37 ], [ %47, %41 ], [ %52, %48 ]
  %54 = zext nneg i32 %31 to i64
  %55 = getelementptr inbounds nuw i8, ptr %.053.i, i64 %54
  %56 = sub nsw i32 %.04051.i, %31
  br label %.backedge.i

euc_jp2mic.exit:                                  ; preds = %.backedge.i, %1, %23, %33
  %.03948.i = phi ptr [ %.03952.i, %33 ], [ %.03952.i, %23 ], [ %8, %1 ], [ %.039.be.i, %.backedge.i ]
  %.045.i = phi ptr [ %.053.i, %33 ], [ %.053.i, %23 ], [ %5, %1 ], [ %.0.be.i, %.backedge.i ]
  store i8 0, ptr %.03948.i, align 1
  %57 = ptrtoint ptr %.045.i to i64
  %58 = sub i64 %57, %4
  %sext = shl i64 %58, 32
  %59 = ashr exact i64 %sext, 32
  ret i64 %59
}